target datalayout = "e-m:e-p270:32:32-p271:32:32-p272:64:64-i64:64-i128:128-f80:128-n8:16:32:64-S128"
target triple = "x86_64-pc-linux-gnu"

%struct.Expr = type { i32 }
%struct.OpExpr = type { %struct.Expr, i32, i32, i32, i8, i32, i32, ptr, i32 }

; Function Attrs: nounwind uwtable
define internal zeroext i1 @_equalDistinctExpr(ptr noundef %0, ptr noundef %1) #0 {
  %3 = alloca i1, align 1
  %4 = alloca ptr, align 8
  %5 = alloca ptr, align 8
  store ptr %0, ptr %4, align 8
  store ptr %1, ptr %5, align 8
  br label %6

6:                                                ; preds = %2
  %7 = load ptr, ptr %4, align 8
  %8 = getelementptr inbounds nuw %struct.OpExpr, ptr %7, i32 0, i32 1
  %9 = load i32, ptr %8, align 4
  %10 = load ptr, ptr %5, align 8
  %11 = getelementptr inbounds nuw %struct.OpExpr, ptr %10, i32 0, i32 1
  %12 = load i32, ptr %11, align 4
  %13 = icmp ne i32 %9, %12
  br i1 %13, label %14, label %15

14:                                               ; preds = %6
  store i1 false, ptr %3, align 1
  br label %95

15:                                               ; preds = %6
  br label %16

16:                                               ; preds = %15
  %17 = load ptr, ptr %4, align 8
  %18 = getelementptr inbounds nuw %struct.OpExpr, ptr %17, i32 0, i32 2
  %19 = load i32, ptr %18, align 8
  %20 = load ptr, ptr %5, align 8
  %21 = getelementptr inbounds nuw %struct.OpExpr, ptr %20, i32 0, i32 2
  %22 = load i32, ptr %21, align 8
  %23 = icmp ne i32 %19, %22
  br i1 %23, label %24, label %35

24:                                               ; preds = %16
  %25 = load ptr, ptr %4, align 8
  %26 = getelementptr inbounds nuw %struct.OpExpr, ptr %25, i32 0, i32 2
  %27 = load i32, ptr %26, align 8
  %28 = icmp ne i32 %27, 0
  br i1 %28, label %29, label %35

29:                                               ; preds = %24
  %30 = load ptr, ptr %5, align 8
  %31 = getelementptr inbounds nuw %struct.OpExpr, ptr %30, i32 0, i32 2
  %32 = load i32, ptr %31, align 8
  %33 = icmp ne i32 %32, 0
  br i1 %33, label %34, label %35

34:                                               ; preds = %29
  store i1 false, ptr %3, align 1
  br label %95

35:                                               ; preds = %29, %24, %16
  br label %36

36:                                               ; preds = %35
  %37 = load ptr, ptr %4, align 8
  %38 = getelementptr inbounds nuw %struct.OpExpr, ptr %37, i32 0, i32 3
  %39 = load i32, ptr %38, align 4
  %40 = load ptr, ptr %5, align 8
  %41 = getelementptr inbounds nuw %struct.OpExpr, ptr %40, i32 0, i32 3
  %42 = load i32, ptr %41, align 4
  %43 = icmp ne i32 %39, %42
  br i1 %43, label %44, label %45

44:                                               ; preds = %36
  store i1 false, ptr %3, align 1
  br label %95

45:                                               ; preds = %36
  br label %46

46:                                               ; preds = %45
  br label %47

47:                                               ; preds = %46
  %48 = load ptr, ptr %4, align 8
  %49 = getelementptr inbounds nuw %struct.OpExpr, ptr %48, i32 0, i32 4
  %50 = load i8, ptr %49, align 8, !range !4, !noundef !5
  %51 = trunc i8 %50 to i1
  %52 = zext i1 %51 to i32
  %53 = load ptr, ptr %5, align 8
  %54 = getelementptr inbounds nuw %struct.OpExpr, ptr %53, i32 0, i32 4
  %55 = load i8, ptr %54, align 8, !range !4, !noundef !5
  %56 = trunc i8 %55 to i1
  %57 = zext i1 %56 to i32
  %58 = icmp ne i32 %52, %57
  br i1 %58, label %59, label %60

59:                                               ; preds = %47
  store i1 false, ptr %3, align 1
  br label %95

60:                                               ; preds = %47
  br label %61

61:                                               ; preds = %60
  br label %62

62:                                               ; preds = %61
  %63 = load ptr, ptr %4, align 8
  %64 = getelementptr inbounds nuw %struct.OpExpr, ptr %63, i32 0, i32 5
  %65 = load i32, ptr %64, align 4
  %66 = load ptr, ptr %5, align 8
  %67 = getelementptr inbounds nuw %struct.OpExpr, ptr %66, i32 0, i32 5
  %68 = load i32, ptr %67, align 4
  %69 = icmp ne i32 %65, %68
  br i1 %69, label %70, label %71

70:                                               ; preds = %62
  store i1 false, ptr %3, align 1
  br label %95

71:                                               ; preds = %62
  br label %72

72:                                               ; preds = %71
  br label %73

73:                                               ; preds = %72
  %74 = load ptr, ptr %4, align 8
  %75 = getelementptr inbounds nuw %struct.OpExpr, ptr %74, i32 0, i32 6
  %76 = load i32, ptr %75, align 8
  %77 = load ptr, ptr %5, align 8
  %78 = getelementptr inbounds nuw %struct.OpExpr, ptr %77, i32 0, i32 6
  %79 = load i32, ptr %78, align 8
  %80 = icmp ne i32 %76, %79
  br i1 %80, label %81, label %82

81:                                               ; preds = %73
  store i1 false, ptr %3, align 1
  br label %95

82:                                               ; preds = %73
  br label %83

83:                                               ; preds = %82
  br label %84

84:                                               ; preds = %83
  %85 = load ptr, ptr %4, align 8
  %86 = getelementptr inbounds nuw %struct.OpExpr, ptr %85, i32 0, i32 7
  %87 = load ptr, ptr %86, align 8
  %88 = load ptr, ptr %5, align 8
  %89 = getelementptr inbounds nuw %struct.OpExpr, ptr %88, i32 0, i32 7
  %90 = load ptr, ptr %89, align 8
  %91 = call zeroext i1 @equal(ptr noundef %87, ptr noundef %90)
  br i1 %91, label %93, label %92

92:                                               ; preds = %84
  store i1 false, ptr %3, align 1
  br label %95

93:                                               ; preds = %84
  br label %94

94:                                               ; preds = %93
  store i1 true, ptr %3, align 1
  br label %95

95:                                               ; preds = %94, %92, %81, %70, %59, %44, %34, %14
  %96 = load i1, ptr %3, align 1
  ret i1 %96
}