; Function Attrs: nounwind uwtable
define internal fastcc zeroext i1 @_equalDistinctExpr(ptr noundef nonnull readonly captures(none) %0, ptr noundef nonnull readonly captures(none) %1) unnamed_addr #0 {
  %3 = getelementptr inbounds nuw i8, ptr %0, i64 4
  %4 = load i32, ptr %3, align 4
  %5 = getelementptr inbounds nuw i8, ptr %1, i64 4
  %6 = load i32, ptr %5, align 4
  %.not = icmp eq i32 %4, %6
  br i1 %.not, label %7, label %38

7:                                                ; preds = %2
  %8 = getelementptr inbounds nuw i8, ptr %0, i64 8
  %9 = load i32, ptr %8, align 8
  %10 = getelementptr inbounds nuw i8, ptr %1, i64 8
  %11 = load i32, ptr %10, align 8
  %.not19 = icmp eq i32 %9, %11
  %.not20 = icmp eq i32 %9, 0
  %or.cond = or i1 %.not20, %.not19
  %.not21 = icmp eq i32 %11, 0
  %or.cond26 = or i1 %.not21, %or.cond
  br i1 %or.cond26, label %12, label %38

12:                                               ; preds = %7
  %13 = getelementptr inbounds nuw i8, ptr %0, i64 12
  %14 = load i32, ptr %13, align 4
  %15 = getelementptr inbounds nuw i8, ptr %1, i64 12
  %16 = load i32, ptr %15, align 4
  %.not22 = icmp eq i32 %14, %16
  br i1 %.not22, label %17, label %38

17:                                               ; preds = %12
  %18 = getelementptr inbounds nuw i8, ptr %0, i64 16
  %19 = load i8, ptr %18, align 8, !range !4, !noundef !5
  %20 = getelementptr inbounds nuw i8, ptr %1, i64 16
  %21 = load i8, ptr %20, align 8, !range !4, !noundef !5
  %.not23 = icmp eq i8 %19, %21
  br i1 %.not23, label %22, label %38

22:                                               ; preds = %17
  %23 = getelementptr inbounds nuw i8, ptr %0, i64 20
  %24 = load i32, ptr %23, align 4
  %25 = getelementptr inbounds nuw i8, ptr %1, i64 20
  %26 = load i32, ptr %25, align 4
  %.not24 = icmp eq i32 %24, %26
  br i1 %.not24, label %27, label %38

27:                                               ; preds = %22
  %28 = getelementptr inbounds nuw i8, ptr %0, i64 24
  %29 = load i32, ptr %28, align 8
  %30 = getelementptr inbounds nuw i8, ptr %1, i64 24
  %31 = load i32, ptr %30, align 8
  %.not25 = icmp eq i32 %29, %31
  br i1 %.not25, label %32, label %38

32:                                               ; preds = %27
  %33 = getelementptr inbounds nuw i8, ptr %0, i64 32
  %34 = load ptr, ptr %33, align 8
  %35 = getelementptr inbounds nuw i8, ptr %1, i64 32
  %36 = load ptr, ptr %35, align 8
  %37 = tail call zeroext i1 @equal(ptr noundef %34, ptr noundef %36)
  br label %38

38:                                               ; preds = %32, %27, %22, %17, %12, %7, %2
  %.0 = phi i1 [ false, %2 ], [ false, %7 ], [ false, %12 ], [ false, %17 ], [ false, %22 ], [ false, %27 ], [ %37, %32 ]
  ret i1 %.0
}